target datalayout = "e-m:e-p270:32:32-p271:32:32-p272:64:64-i64:64-i128:128-f80:128-n8:16:32:64-S128"
target triple = "x86_64-pc-linux-gnu"

%struct.hashmap = type { ptr, ptr, ptr, i32, i32, i32, i32, i8 }
%struct.hashmap_entry = type { ptr, i32 }

; Function Attrs: inlinehint nounwind uwtable
define internal i32 @entry_equals(ptr noundef %0, ptr noundef %1, ptr noundef %2, ptr noundef %3) #4 {
  %5 = alloca ptr, align 8
  %6 = alloca ptr, align 8
  %7 = alloca ptr, align 8
  %8 = alloca ptr, align 8
  store ptr %0, ptr %5, align 8, !tbaa !21
  store ptr %1, ptr %6, align 8, !tbaa !29
  store ptr %2, ptr %7, align 8, !tbaa !29
  store ptr %3, ptr %8, align 8, !tbaa !15
  %9 = load ptr, ptr %6, align 8, !tbaa !29
  %10 = load ptr, ptr %7, align 8, !tbaa !29
  %11 = icmp eq ptr %9, %10
  br i1 %11, label %35, label %12

12:                                               ; preds = %4
  %13 = load ptr, ptr %6, align 8, !tbaa !29
  %14 = getelementptr inbounds nuw %struct.hashmap_entry, ptr %13, i32 0, i32 1
  %15 = load i32, ptr %14, align 8, !tbaa !41
  %16 = load ptr, ptr %7, align 8, !tbaa !29
  %17 = getelementptr inbounds nuw %struct.hashmap_entry, ptr %16, i32 0, i32 1
  %18 = load i32, ptr %17, align 8, !tbaa !41
  %19 = icmp eq i32 %15, %18
  br i1 %19, label %20, label %33

20:                                               ; preds = %12
  %21 = load ptr, ptr %5, align 8, !tbaa !21
  %22 = getelementptr inbounds nuw %struct.hashmap, ptr %21, i32 0, i32 1
  %23 = load ptr, ptr %22, align 8, !tbaa !26
  %24 = load ptr, ptr %5, align 8, !tbaa !21
  %25 = getelementptr inbounds nuw %struct.hashmap, ptr %24, i32 0, i32 2
  %26 = load ptr, ptr %25, align 8, !tbaa !27
  %27 = load ptr, ptr %6, align 8, !tbaa !29
  %28 = load ptr, ptr %7, align 8, !tbaa !29
  %29 = load ptr, ptr %8, align 8, !tbaa !15
  %30 = call i32 %23(ptr noundef %26, ptr noundef %27, ptr noundef %28, ptr noundef %29)
  %31 = icmp ne i32 %30, 0
  %32 = xor i1 %31, true
  br label %33

33:                                               ; preds = %20, %12
  %34 = phi i1 [ false, %12 ], [ %32, %20 ]
  br label %35

35:                                               ; preds = %33, %4
  %36 = phi i1 [ true, %4 ], [ %34, %33 ]
  %37 = zext i1 %36 to i32
  ret i32 %37
}

; Function Attrs: nounwind uwtable
define dso_local ptr @hashmap_get_next(ptr noundef %0, ptr noundef %1) #0 {
  %3 = alloca ptr, align 8
  %4 = alloca ptr, align 8
  %5 = alloca ptr, align 8
  %6 = alloca ptr, align 8
  %7 = alloca i32, align 4
  store ptr %0, ptr %4, align 8, !tbaa !21
  store ptr %1, ptr %5, align 8, !tbaa !29
  call void @llvm.lifetime.start.p0(i64 8, ptr %6) #9
  %8 = load ptr, ptr %5, align 8, !tbaa !29
  %9 = getelementptr inbounds nuw %struct.hashmap_entry, ptr %8, i32 0, i32 0
  %10 = load ptr, ptr %9, align 8, !tbaa !38
  store ptr %10, ptr %6, align 8, !tbaa !29
  br label %11

11:                                               ; preds = %23, %2
  %12 = load ptr, ptr %6, align 8, !tbaa !29
  %13 = icmp ne ptr %12, null
  br i1 %13, label %14, label %27

14:                                               ; preds = %11
  %15 = load ptr, ptr %4, align 8, !tbaa !21
  %16 = load ptr, ptr %5, align 8, !tbaa !29
  %17 = load ptr, ptr %6, align 8, !tbaa !29
  %18 = call i32 @entry_equals(ptr noundef %15, ptr noundef %16, ptr noundef %17, ptr noundef null)
  %19 = icmp ne i32 %18, 0
  br i1 %19, label %20, label %22

20:                                               ; preds = %14
  %21 = load ptr, ptr %6, align 8, !tbaa !29
  store ptr %21, ptr %3, align 8
  store i32 1, ptr %7, align 4
  br label %28

22:                                               ; preds = %14
  br label %23

23:                                               ; preds = %22
  %24 = load ptr, ptr %6, align 8, !tbaa !29
  %25 = getelementptr inbounds nuw %struct.hashmap_entry, ptr %24, i32 0, i32 0
  %26 = load ptr, ptr %25, align 8, !tbaa !38
  store ptr %26, ptr %6, align 8, !tbaa !29
  br label %11, !llvm.loop !40

27:                                               ; preds = %11
  store ptr null, ptr %3, align 8
  store i32 1, ptr %7, align 4
  br label %28

28:                                               ; preds = %27, %20
  call void @llvm.lifetime.end.p0(i64 8, ptr %6) #9
  %29 = load ptr, ptr %3, align 8
  ret ptr %29
}