; Function Attrs: nounwind uwtable
define dso_local ptr @hashmap_get_next(ptr noundef readonly captures(none) %0, ptr noundef %1) local_unnamed_addr #3 {
  %3 = getelementptr inbounds nuw i8, ptr %0, i64 8
  %.011 = load ptr, ptr %1, align 8, !tbaa !26
  %.not12 = icmp eq ptr %.011, null
  %4 = icmp eq ptr %1, %.011
  %or.cond13 = or i1 %.not12, %4
  br i1 %or.cond13, label %entry_equals.exit.thread, label %.lr.ph

.lr.ph:                                           ; preds = %2
  %5 = getelementptr inbounds nuw i8, ptr %1, i64 8
  %6 = getelementptr inbounds nuw i8, ptr %0, i64 16
  br label %7

7:                                                ; preds = %.lr.ph, %.critedge.backedge
  %.014 = phi ptr [ %.011, %.lr.ph ], [ %.0, %.critedge.backedge ]
  %8 = load i32, ptr %5, align 8, !tbaa !30
  %9 = getelementptr inbounds nuw i8, ptr %.014, i64 8
  %10 = load i32, ptr %9, align 8, !tbaa !30
  %11 = icmp eq i32 %8, %10
  br i1 %11, label %entry_equals.exit, label %.critedge.backedge

entry_equals.exit:                                ; preds = %7
  %12 = load ptr, ptr %3, align 8, !tbaa !18
  %13 = load ptr, ptr %6, align 8, !tbaa !19
  %14 = tail call i32 %12(ptr noundef %13, ptr noundef nonnull %1, ptr noundef nonnull %.014, ptr noundef null) #15
  %.not.i.not = icmp eq i32 %14, 0
  br i1 %.not.i.not, label %entry_equals.exit.thread, label %.critedge.backedge

.critedge.backedge:                               ; preds = %entry_equals.exit, %7
  %.0 = load ptr, ptr %.014, align 8, !tbaa !26
  %.not = icmp eq ptr %.0, null
  %15 = icmp eq ptr %1, %.0
  %or.cond = or i1 %.not, %15
  br i1 %or.cond, label %entry_equals.exit.thread, label %7, !llvm.loop !32

entry_equals.exit.thread:                         ; preds = %entry_equals.exit, %.critedge.backedge, %2
  %.0.lcssa = phi ptr [ %.011, %2 ], [ %.0, %.critedge.backedge ], [ %.014, %entry_equals.exit ]
  ret ptr %.0.lcssa
}